#include <math.h>
#include <stdio.h>
#include <stdlib.h>
#include <string.h>

int main ()
{   
	int judge=0,b[300],*c[300],num,i,k,j;scanf("%d",&num);
    for(i=0;i<num;i++)        {*(c+i)=&b[i];}
	
	for(i=0;i<num;i++)
	   scanf("%d",*(c+i));
	for(i=0;i<num;i++)
	{   
        if(*(c+i)==NULL)   continue;
		k=**(c+i);
		for(j=i+1;j<num;j++)
		{if(*(c+j)==NULL)   continue;
		if(**(c+j)==k)  *(c+j)=NULL;}
	}
	for(i=0;i<num;i++)
	{
		if(*(c+i)==NULL)   continue;
        printf("%d",**(c+i));
		break;
	}
	for(i++;i<num;i++)
	{
		if(*(c+i)==NULL)   continue;
        printf(",%d",**(c+i));
	}

			
			
	return 0;
}
 