; ModuleID = '53/149.c'
source_filename = "53/149.c"
target datalayout = "e-m:e-p270:32:32-p271:32:32-p272:64:64-i64:64-f80:128-n8:16:32:64-S128"
target triple = "x86_64-pc-linux-gnu"

@.str = private unnamed_addr constant [3 x i8] c"%d\00", align 1
@.str.1 = private unnamed_addr constant [4 x i8] c",%d\00", align 1

; Function Attrs: noinline nounwind uwtable
define dso_local i32 @main() #0 {
  %1 = alloca i32, align 4
  %2 = alloca i32, align 4
  %3 = alloca [300 x i32], align 16
  %4 = alloca [300 x i32*], align 16
  %5 = alloca i32, align 4
  %6 = alloca i32, align 4
  %7 = alloca i32, align 4
  %8 = alloca i32, align 4
  store i32 0, i32* %1, align 4
  store i32 0, i32* %2, align 4
  %9 = call i32 (i8*, ...) @__isoc99_scanf(i8* getelementptr inbounds ([3 x i8], [3 x i8]* @.str, i64 0, i64 0), i32* %5)
  store i32 0, i32* %6, align 4
  br label %10

10:                                               ; preds = %22, %0
  %11 = load i32, i32* %6, align 4
  %12 = load i32, i32* %5, align 4
  %13 = icmp slt i32 %11, %12
  br i1 %13, label %14, label %25

14:                                               ; preds = %10
  %15 = load i32, i32* %6, align 4
  %16 = sext i32 %15 to i64
  %17 = getelementptr inbounds [300 x i32], [300 x i32]* %3, i64 0, i64 %16
  %18 = getelementptr inbounds [300 x i32*], [300 x i32*]* %4, i64 0, i64 0
  %19 = load i32, i32* %6, align 4
  %20 = sext i32 %19 to i64
  %21 = getelementptr inbounds i32*, i32** %18, i64 %20
  store i32* %17, i32** %21, align 8
  br label %22

22:                                               ; preds = %14
  %23 = load i32, i32* %6, align 4
  %24 = add nsw i32 %23, 1
  store i32 %24, i32* %6, align 4
  br label %10

25:                                               ; preds = %10
  store i32 0, i32* %6, align 4
  br label %26

26:                                               ; preds = %37, %25
  %27 = load i32, i32* %6, align 4
  %28 = load i32, i32* %5, align 4
  %29 = icmp slt i32 %27, %28
  br i1 %29, label %30, label %40

30:                                               ; preds = %26
  %31 = getelementptr inbounds [300 x i32*], [300 x i32*]* %4, i64 0, i64 0
  %32 = load i32, i32* %6, align 4
  %33 = sext i32 %32 to i64
  %34 = getelementptr inbounds i32*, i32** %31, i64 %33
  %35 = load i32*, i32** %34, align 8
  %36 = call i32 (i8*, ...) @__isoc99_scanf(i8* getelementptr inbounds ([3 x i8], [3 x i8]* @.str, i64 0, i64 0), i32* %35)
  br label %37

37:                                               ; preds = %30
  %38 = load i32, i32* %6, align 4
  %39 = add nsw i32 %38, 1
  store i32 %39, i32* %6, align 4
  br label %26

40:                                               ; preds = %26
  store i32 0, i32* %6, align 4
  br label %41

41:                                               ; preds = %93, %40
  %42 = load i32, i32* %6, align 4
  %43 = load i32, i32* %5, align 4
  %44 = icmp slt i32 %42, %43
  br i1 %44, label %45, label %96

45:                                               ; preds = %41
  %46 = getelementptr inbounds [300 x i32*], [300 x i32*]* %4, i64 0, i64 0
  %47 = load i32, i32* %6, align 4
  %48 = sext i32 %47 to i64
  %49 = getelementptr inbounds i32*, i32** %46, i64 %48
  %50 = load i32*, i32** %49, align 8
  %51 = icmp eq i32* %50, null
  br i1 %51, label %52, label %53

52:                                               ; preds = %45
  br label %93

53:                                               ; preds = %45
  %54 = getelementptr inbounds [300 x i32*], [300 x i32*]* %4, i64 0, i64 0
  %55 = load i32, i32* %6, align 4
  %56 = sext i32 %55 to i64
  %57 = getelementptr inbounds i32*, i32** %54, i64 %56
  %58 = load i32*, i32** %57, align 8
  %59 = load i32, i32* %58, align 4
  store i32 %59, i32* %7, align 4
  %60 = load i32, i32* %6, align 4
  %61 = add nsw i32 %60, 1
  store i32 %61, i32* %8, align 4
  br label %62

62:                                               ; preds = %89, %53
  %63 = load i32, i32* %8, align 4
  %64 = load i32, i32* %5, align 4
  %65 = icmp slt i32 %63, %64
  br i1 %65, label %66, label %92

66:                                               ; preds = %62
  %67 = getelementptr inbounds [300 x i32*], [300 x i32*]* %4, i64 0, i64 0
  %68 = load i32, i32* %8, align 4
  %69 = sext i32 %68 to i64
  %70 = getelementptr inbounds i32*, i32** %67, i64 %69
  %71 = load i32*, i32** %70, align 8
  %72 = icmp eq i32* %71, null
  br i1 %72, label %73, label %74

73:                                               ; preds = %66
  br label %89

74:                                               ; preds = %66
  %75 = getelementptr inbounds [300 x i32*], [300 x i32*]* %4, i64 0, i64 0
  %76 = load i32, i32* %8, align 4
  %77 = sext i32 %76 to i64
  %78 = getelementptr inbounds i32*, i32** %75, i64 %77
  %79 = load i32*, i32** %78, align 8
  %80 = load i32, i32* %79, align 4
  %81 = load i32, i32* %7, align 4
  %82 = icmp eq i32 %80, %81
  br i1 %82, label %83, label %88

83:                                               ; preds = %74
  %84 = getelementptr inbounds [300 x i32*], [300 x i32*]* %4, i64 0, i64 0
  %85 = load i32, i32* %8, align 4
  %86 = sext i32 %85 to i64
  %87 = getelementptr inbounds i32*, i32** %84, i64 %86
  store i32* null, i32** %87, align 8
  br label %88

88:                                               ; preds = %83, %74
  br label %89

89:                                               ; preds = %88, %73
  %90 = load i32, i32* %8, align 4
  %91 = add nsw i32 %90, 1
  store i32 %91, i32* %8, align 4
  br label %62

92:                                               ; preds = %62
  br label %93

93:                                               ; preds = %92, %52
  %94 = load i32, i32* %6, align 4
  %95 = add nsw i32 %94, 1
  store i32 %95, i32* %6, align 4
  br label %41

96:                                               ; preds = %41
  store i32 0, i32* %6, align 4
  br label %97

97:                                               ; preds = %117, %96
  %98 = load i32, i32* %6, align 4
  %99 = load i32, i32* %5, align 4
  %100 = icmp slt i32 %98, %99
  br i1 %100, label %101, label %120

101:                                              ; preds = %97
  %102 = getelementptr inbounds [300 x i32*], [300 x i32*]* %4, i64 0, i64 0
  %103 = load i32, i32* %6, align 4
  %104 = sext i32 %103 to i64
  %105 = getelementptr inbounds i32*, i32** %102, i64 %104
  %106 = load i32*, i32** %105, align 8
  %107 = icmp eq i32* %106, null
  br i1 %107, label %108, label %109

108:                                              ; preds = %101
  br label %117

109:                                              ; preds = %101
  %110 = getelementptr inbounds [300 x i32*], [300 x i32*]* %4, i64 0, i64 0
  %111 = load i32, i32* %6, align 4
  %112 = sext i32 %111 to i64
  %113 = getelementptr inbounds i32*, i32** %110, i64 %112
  %114 = load i32*, i32** %113, align 8
  %115 = load i32, i32* %114, align 4
  %116 = call i32 (i8*, ...) @printf(i8* getelementptr inbounds ([3 x i8], [3 x i8]* @.str, i64 0, i64 0), i32 %115)
  br label %120

117:                                              ; preds = %108
  %118 = load i32, i32* %6, align 4
  %119 = add nsw i32 %118, 1
  store i32 %119, i32* %6, align 4
  br label %97

120:                                              ; preds = %109, %97
  %121 = load i32, i32* %6, align 4
  %122 = add nsw i32 %121, 1
  store i32 %122, i32* %6, align 4
  br label %123

123:                                              ; preds = %143, %120
  %124 = load i32, i32* %6, align 4
  %125 = load i32, i32* %5, align 4
  %126 = icmp slt i32 %124, %125
  br i1 %126, label %127, label %146

127:                                              ; preds = %123
  %128 = getelementptr inbounds [300 x i32*], [300 x i32*]* %4, i64 0, i64 0
  %129 = load i32, i32* %6, align 4
  %130 = sext i32 %129 to i64
  %131 = getelementptr inbounds i32*, i32** %128, i64 %130
  %132 = load i32*, i32** %131, align 8
  %133 = icmp eq i32* %132, null
  br i1 %133, label %134, label %135

134:                                              ; preds = %127
  br label %143

135:                                              ; preds = %127
  %136 = getelementptr inbounds [300 x i32*], [300 x i32*]* %4, i64 0, i64 0
  %137 = load i32, i32* %6, align 4
  %138 = sext i32 %137 to i64
  %139 = getelementptr inbounds i32*, i32** %136, i64 %138
  %140 = load i32*, i32** %139, align 8
  %141 = load i32, i32* %140, align 4
  %142 = call i32 (i8*, ...) @printf(i8* getelementptr inbounds ([4 x i8], [4 x i8]* @.str.1, i64 0, i64 0), i32 %141)
  br label %143

143:                                              ; preds = %135, %134
  %144 = load i32, i32* %6, align 4
  %145 = add nsw i32 %144, 1
  store i32 %145, i32* %6, align 4
  br label %123

146:                                              ; preds = %123
  ret i32 0
}

declare dso_local i32 @__isoc99_scanf(i8*, ...) #1

declare dso_local i32 @printf(i8*, ...) #1


!llvm.module.flags = !{!0}
!llvm.ident = !{!1}

!0 = !{i32 1, !"wchar_size", i32 4}
!1 = !{!"clang version 10.0.0-4ubuntu1 "}
